target datalayout = "e-m:e-p270:32:32-p271:32:32-p272:64:64-i64:64-i128:128-f80:128-n8:16:32:64-S128"
target triple = "x86_64-pc-linux-gnu"

%struct.tm = type { i32, i32, i32, i32, i32, i32, i32, i32, i32, i64, ptr }
%struct.asn1_string_st = type { i32, i32, ptr, i64 }

@.str = private unnamed_addr constant [20 x i8] c"%2d%2d%2d%2d%2d%2dZ\00", align 1
@rb_eTypeError = external global i64, align 8
@.str.1 = private unnamed_addr constant [25 x i8] c"bad UTCTIME format: \22%s\22\00", align 1
@.str.2 = private unnamed_addr constant [20 x i8] c"%4d%2d%2d%2d%2d%2dZ\00", align 1
@.str.3 = private unnamed_addr constant [33 x i8] c"bad GENERALIZEDTIME format: \22%s\22\00", align 1
@.str.4 = private unnamed_addr constant [20 x i8] c"unknown time format\00", align 1
@rb_cTime = external global i64, align 8
@asn1time_to_time.rbimpl_id = internal global i64 0, align 8
@.str.5 = private unnamed_addr constant [4 x i8] c"utc\00", align 1

; Function Attrs: inlinehint nounwind sspstrong willreturn memory(read) uwtable
define internal i64 @rb_intern_const(ptr noundef nonnull %0) #10 {
  %2 = alloca ptr, align 8
  %3 = alloca i64, align 8
  store ptr %0, ptr %2, align 8, !tbaa !29
  call void @llvm.lifetime.start.p0(i64 8, ptr %3) #16
  %4 = load ptr, ptr %2, align 8, !tbaa !29
  %5 = call i64 @strlen(ptr noundef %4) #20
  store i64 %5, ptr %3, align 8, !tbaa !20
  %6 = load ptr, ptr %2, align 8, !tbaa !29
  %7 = load i64, ptr %3, align 8, !tbaa !20
  %8 = call i64 @rb_intern2(ptr noundef %6, i64 noundef %7)
  call void @llvm.lifetime.end.p0(i64 8, ptr %3) #16
  ret i64 %8
}

; Function Attrs: inlinehint nounwind sspstrong willreturn memory(none) uwtable
define internal i64 @RB_INT2FIX(i64 noundef %0) #8 {
  %2 = alloca i64, align 8
  %3 = alloca i64, align 8
  %4 = alloca i64, align 8
  %5 = alloca i64, align 8
  %6 = alloca i64, align 8
  %7 = alloca i64, align 8
  store i64 %0, ptr %2, align 8, !tbaa !20
  call void @llvm.lifetime.start.p0(i64 8, ptr %3) #16
  %8 = load i64, ptr %2, align 8, !tbaa !20
  store i64 %8, ptr %3, align 8, !tbaa !20
  call void @llvm.lifetime.start.p0(i64 8, ptr %4) #16
  %9 = load i64, ptr %3, align 8, !tbaa !20
  %10 = shl i64 %9, 1
  %11 = add i64 %10, 1
  store i64 %11, ptr %4, align 8, !tbaa !20
  call void @llvm.lifetime.start.p0(i64 8, ptr %5) #16
  %12 = load i64, ptr %4, align 8, !tbaa !20
  store i64 %12, ptr %5, align 8, !tbaa !20
  call void @llvm.lifetime.start.p0(i64 8, ptr %6) #16
  %13 = load i64, ptr %5, align 8, !tbaa !20
  store i64 %13, ptr %6, align 8, !tbaa !20
  call void @llvm.lifetime.start.p0(i64 8, ptr %7) #16
  %14 = load i64, ptr %6, align 8, !tbaa !20
  store i64 %14, ptr %7, align 8, !tbaa !20
  %15 = load i64, ptr %7, align 8, !tbaa !20
  call void @llvm.lifetime.end.p0(i64 8, ptr %7) #16
  call void @llvm.lifetime.end.p0(i64 8, ptr %6) #16
  call void @llvm.lifetime.end.p0(i64 8, ptr %5) #16
  call void @llvm.lifetime.end.p0(i64 8, ptr %4) #16
  call void @llvm.lifetime.end.p0(i64 8, ptr %3) #16
  ret i64 %15
}

; Function Attrs: inlinehint nounwind sspstrong memory(argmem: readwrite, inaccessiblemem: readwrite) uwtable
define internal i64 @rbimpl_intern_const(ptr noundef nonnull %0, ptr noundef nonnull %1) #7 {
  %3 = alloca ptr, align 8
  %4 = alloca ptr, align 8
  store ptr %0, ptr %3, align 8, !tbaa !27
  store ptr %1, ptr %4, align 8, !tbaa !29
  br label %5

5:                                                ; preds = %10, %2
  %6 = load ptr, ptr %3, align 8, !tbaa !27
  %7 = load i64, ptr %6, align 8, !tbaa !20
  %8 = icmp ne i64 %7, 0
  %9 = xor i1 %8, true
  br i1 %9, label %10, label %14

10:                                               ; preds = %5
  %11 = load ptr, ptr %4, align 8, !tbaa !29
  %12 = call i64 @rb_intern_const(ptr noundef %11) #20
  %13 = load ptr, ptr %3, align 8, !tbaa !27
  store i64 %12, ptr %13, align 8, !tbaa !20
  br label %5, !llvm.loop !30

14:                                               ; preds = %5
  %15 = load ptr, ptr %3, align 8, !tbaa !27
  %16 = load i64, ptr %15, align 8, !tbaa !20
  ret i64 %16
}

; Function Attrs: inlinehint nounwind sspstrong uwtable
define internal i64 @rb_int2num_inline(i32 noundef %0) #6 {
  %2 = alloca i64, align 8
  %3 = alloca i32, align 4
  store i32 %0, ptr %3, align 4, !tbaa !17
  %4 = load i32, ptr %3, align 4, !tbaa !17
  %5 = sext i32 %4 to i64
  %6 = icmp slt i64 %5, 4611686018427387904
  br i1 %6, label %7, label %15

7:                                                ; preds = %1
  %8 = load i32, ptr %3, align 4, !tbaa !17
  %9 = sext i32 %8 to i64
  %10 = icmp sge i64 %9, -4611686018427387904
  br i1 %10, label %11, label %15

11:                                               ; preds = %7
  %12 = load i32, ptr %3, align 4, !tbaa !17
  %13 = sext i32 %12 to i64
  %14 = call i64 @RB_INT2FIX(i64 noundef %13) #19
  store i64 %14, ptr %2, align 8
  br label %19

15:                                               ; preds = %7, %1
  %16 = load i32, ptr %3, align 4, !tbaa !17
  %17 = sext i32 %16 to i64
  %18 = call i64 @rb_int2big(i64 noundef %17)
  store i64 %18, ptr %2, align 8
  br label %19

19:                                               ; preds = %15, %11
  %20 = load i64, ptr %2, align 8
  ret i64 %20
}

; Function Attrs: alwaysinline nounwind
define internal ptr @memset.inline(ptr nonnull %0, i32 %1, i64 %2) #2 {
  %4 = alloca ptr, align 8
  %5 = alloca i32, align 4
  %6 = alloca i64, align 8
  store ptr %0, ptr %4, align 8, !tbaa !26
  store i32 %1, ptr %5, align 4, !tbaa !17
  store i64 %2, ptr %6, align 8, !tbaa !20
  %7 = load ptr, ptr %4, align 8, !tbaa !26
  %8 = load i32, ptr %5, align 4, !tbaa !17
  %9 = load i64, ptr %6, align 8, !tbaa !20
  %10 = load ptr, ptr %4, align 8, !tbaa !26
  %11 = call i64 @llvm.objectsize.i64.p0(ptr %10, i1 false, i1 true, i1 false)
  %12 = call ptr @__memset_chk(ptr noundef %7, i32 noundef %8, i64 noundef %9, i64 noundef %11) #16
  ret ptr %12
}

; Function Attrs: nounwind sspstrong uwtable
define i64 @asn1time_to_time(ptr noundef %0) #0 {
  %2 = alloca i64, align 8
  %3 = alloca ptr, align 8
  %4 = alloca %struct.tm, align 8
  %5 = alloca [6 x i64], align 16
  %6 = alloca i32, align 4
  %7 = alloca i32, align 4
  %8 = alloca i64, align 8
  store ptr %0, ptr %3, align 8, !tbaa !6
  call void @llvm.lifetime.start.p0(i64 56, ptr %4) #16
  call void @llvm.lifetime.start.p0(i64 48, ptr %5) #16
  call void @llvm.lifetime.start.p0(i64 4, ptr %6) #16
  %9 = call ptr @memset.inline(ptr noundef %4, i32 noundef 0, i64 noundef 56) #16
  %10 = load ptr, ptr %3, align 8, !tbaa !6
  %11 = getelementptr inbounds nuw %struct.asn1_string_st, ptr %10, i32 0, i32 1
  %12 = load i32, ptr %11, align 4, !tbaa !11
  switch i32 %12, label %75 [
    i32 23, label %13
    i32 24, label %50
  ]

13:                                               ; preds = %1
  %14 = load ptr, ptr %3, align 8, !tbaa !6
  %15 = getelementptr inbounds nuw %struct.asn1_string_st, ptr %14, i32 0, i32 2
  %16 = load ptr, ptr %15, align 8, !tbaa !16
  %17 = getelementptr inbounds nuw %struct.tm, ptr %4, i32 0, i32 5
  %18 = getelementptr inbounds nuw %struct.tm, ptr %4, i32 0, i32 4
  %19 = getelementptr inbounds nuw %struct.tm, ptr %4, i32 0, i32 3
  %20 = getelementptr inbounds nuw %struct.tm, ptr %4, i32 0, i32 2
  %21 = getelementptr inbounds nuw %struct.tm, ptr %4, i32 0, i32 1
  %22 = getelementptr inbounds nuw %struct.tm, ptr %4, i32 0, i32 0
  %23 = call i32 (ptr, ptr, ...) @__isoc99_sscanf(ptr noundef %16, ptr noundef @.str, ptr noundef %17, ptr noundef %18, ptr noundef %19, ptr noundef %20, ptr noundef %21, ptr noundef %22) #16
  store i32 %23, ptr %6, align 4, !tbaa !17
  %24 = load i32, ptr %6, align 4, !tbaa !17
  %25 = icmp eq i32 %24, 5
  br i1 %25, label %26, label %28

26:                                               ; preds = %13
  %27 = getelementptr inbounds nuw %struct.tm, ptr %4, i32 0, i32 0
  store i32 0, ptr %27, align 8, !tbaa !18
  br label %37

28:                                               ; preds = %13
  %29 = load i32, ptr %6, align 4, !tbaa !17
  %30 = icmp ne i32 %29, 6
  br i1 %30, label %31, label %36

31:                                               ; preds = %28
  %32 = load i64, ptr @rb_eTypeError, align 8, !tbaa !20
  %33 = load ptr, ptr %3, align 8, !tbaa !6
  %34 = getelementptr inbounds nuw %struct.asn1_string_st, ptr %33, i32 0, i32 2
  %35 = load ptr, ptr %34, align 8, !tbaa !16
  call void (i64, ptr, ...) @ossl_raise(i64 noundef %32, ptr noundef @.str.1, ptr noundef %35) #17
  unreachable

36:                                               ; preds = %28
  br label %37

37:                                               ; preds = %36, %26
  %38 = getelementptr inbounds nuw %struct.tm, ptr %4, i32 0, i32 5
  %39 = load i32, ptr %38, align 4, !tbaa !21
  %40 = icmp slt i32 %39, 69
  br i1 %40, label %41, label %45

41:                                               ; preds = %37
  %42 = getelementptr inbounds nuw %struct.tm, ptr %4, i32 0, i32 5
  %43 = load i32, ptr %42, align 4, !tbaa !21
  %44 = add nsw i32 %43, 2000
  store i32 %44, ptr %42, align 4, !tbaa !21
  br label %49

45:                                               ; preds = %37
  %46 = getelementptr inbounds nuw %struct.tm, ptr %4, i32 0, i32 5
  %47 = load i32, ptr %46, align 4, !tbaa !21
  %48 = add nsw i32 %47, 1900
  store i32 %48, ptr %46, align 4, !tbaa !21
  br label %49

49:                                               ; preds = %45, %41
  br label %76

50:                                               ; preds = %1
  %51 = load ptr, ptr %3, align 8, !tbaa !6
  %52 = getelementptr inbounds nuw %struct.asn1_string_st, ptr %51, i32 0, i32 2
  %53 = load ptr, ptr %52, align 8, !tbaa !16
  %54 = getelementptr inbounds nuw %struct.tm, ptr %4, i32 0, i32 5
  %55 = getelementptr inbounds nuw %struct.tm, ptr %4, i32 0, i32 4
  %56 = getelementptr inbounds nuw %struct.tm, ptr %4, i32 0, i32 3
  %57 = getelementptr inbounds nuw %struct.tm, ptr %4, i32 0, i32 2
  %58 = getelementptr inbounds nuw %struct.tm, ptr %4, i32 0, i32 1
  %59 = getelementptr inbounds nuw %struct.tm, ptr %4, i32 0, i32 0
  %60 = call i32 (ptr, ptr, ...) @__isoc99_sscanf(ptr noundef %53, ptr noundef @.str.2, ptr noundef %54, ptr noundef %55, ptr noundef %56, ptr noundef %57, ptr noundef %58, ptr noundef %59) #16
  store i32 %60, ptr %6, align 4, !tbaa !17
  %61 = load i32, ptr %6, align 4, !tbaa !17
  %62 = icmp eq i32 %61, 5
  br i1 %62, label %63, label %65

63:                                               ; preds = %50
  %64 = getelementptr inbounds nuw %struct.tm, ptr %4, i32 0, i32 0
  store i32 0, ptr %64, align 8, !tbaa !18
  br label %74

65:                                               ; preds = %50
  %66 = load i32, ptr %6, align 4, !tbaa !17
  %67 = icmp ne i32 %66, 6
  br i1 %67, label %68, label %73

68:                                               ; preds = %65
  %69 = load i64, ptr @rb_eTypeError, align 8, !tbaa !20
  %70 = load ptr, ptr %3, align 8, !tbaa !6
  %71 = getelementptr inbounds nuw %struct.asn1_string_st, ptr %70, i32 0, i32 2
  %72 = load ptr, ptr %71, align 8, !tbaa !16
  call void (i64, ptr, ...) @ossl_raise(i64 noundef %69, ptr noundef @.str.3, ptr noundef %72) #17
  unreachable

73:                                               ; preds = %65
  br label %74

74:                                               ; preds = %73, %63
  br label %76

75:                                               ; preds = %1
  call void (ptr, ...) @rb_warning(ptr noundef @.str.4)
  store i64 4, ptr %2, align 8
  store i32 1, ptr %7, align 4
  br label %106

76:                                               ; preds = %74, %49
  %77 = getelementptr inbounds nuw %struct.tm, ptr %4, i32 0, i32 5
  %78 = load i32, ptr %77, align 4, !tbaa !21
  %79 = call i64 @rb_int2num_inline(i32 noundef %78)
  %80 = getelementptr inbounds [6 x i64], ptr %5, i64 0, i64 0
  store i64 %79, ptr %80, align 16, !tbaa !20
  %81 = getelementptr inbounds nuw %struct.tm, ptr %4, i32 0, i32 4
  %82 = load i32, ptr %81, align 8, !tbaa !22
  %83 = call i64 @rb_int2num_inline(i32 noundef %82)
  %84 = getelementptr inbounds [6 x i64], ptr %5, i64 0, i64 1
  store i64 %83, ptr %84, align 8, !tbaa !20
  %85 = getelementptr inbounds nuw %struct.tm, ptr %4, i32 0, i32 3
  %86 = load i32, ptr %85, align 4, !tbaa !23
  %87 = call i64 @rb_int2num_inline(i32 noundef %86)
  %88 = getelementptr inbounds [6 x i64], ptr %5, i64 0, i64 2
  store i64 %87, ptr %88, align 16, !tbaa !20
  %89 = getelementptr inbounds nuw %struct.tm, ptr %4, i32 0, i32 2
  %90 = load i32, ptr %89, align 8, !tbaa !24
  %91 = call i64 @rb_int2num_inline(i32 noundef %90)
  %92 = getelementptr inbounds [6 x i64], ptr %5, i64 0, i64 3
  store i64 %91, ptr %92, align 8, !tbaa !20
  %93 = getelementptr inbounds nuw %struct.tm, ptr %4, i32 0, i32 1
  %94 = load i32, ptr %93, align 4, !tbaa !25
  %95 = call i64 @rb_int2num_inline(i32 noundef %94)
  %96 = getelementptr inbounds [6 x i64], ptr %5, i64 0, i64 4
  store i64 %95, ptr %96, align 16, !tbaa !20
  %97 = getelementptr inbounds nuw %struct.tm, ptr %4, i32 0, i32 0
  %98 = load i32, ptr %97, align 8, !tbaa !18
  %99 = call i64 @rb_int2num_inline(i32 noundef %98)
  %100 = getelementptr inbounds [6 x i64], ptr %5, i64 0, i64 5
  store i64 %99, ptr %100, align 8, !tbaa !20
  %101 = load i64, ptr @rb_cTime, align 8, !tbaa !20
  %102 = call i64 @rbimpl_intern_const(ptr noundef @asn1time_to_time.rbimpl_id, ptr noundef @.str.5) #18
  store i64 %102, ptr %8, align 8, !tbaa !20
  %103 = load i64, ptr %8, align 8, !tbaa !20
  %104 = getelementptr inbounds [6 x i64], ptr %5, i64 0, i64 0
  %105 = call i64 @rb_funcallv(i64 noundef %101, i64 noundef %103, i32 noundef 6, ptr noundef %104)
  store i64 %105, ptr %2, align 8
  store i32 1, ptr %7, align 4
  br label %106

106:                                              ; preds = %76, %75
  call void @llvm.lifetime.end.p0(i64 4, ptr %6) #16
  call void @llvm.lifetime.end.p0(i64 48, ptr %5) #16
  call void @llvm.lifetime.end.p0(i64 56, ptr %4) #16
  %107 = load i64, ptr %2, align 8
  ret i64 %107
}