; Function Attrs: nounwind sspstrong uwtable
define i64 @asn1time_to_time(ptr noundef readonly captures(none) %0) local_unnamed_addr #0 {
  %2 = alloca %struct.tm, align 8
  %3 = alloca [6 x i64], align 16
  call void @llvm.lifetime.start.p0(i64 56, ptr nonnull %2) #9
  call void @llvm.lifetime.start.p0(i64 48, ptr nonnull %3) #9
  call void @llvm.memset.p0.i64(ptr noundef nonnull align 8 dereferenceable(56) %2, i8 noundef 0, i64 noundef 56, i1 noundef false) #9
  %4 = getelementptr inbounds nuw i8, ptr %0, i64 4
  %5 = load i32, ptr %4, align 4, !tbaa !6
  switch i32 %5, label %39 [
    i32 23, label %6
    i32 24, label %26
  ]

6:                                                ; preds = %1
  %7 = getelementptr inbounds nuw i8, ptr %0, i64 8
  %8 = load ptr, ptr %7, align 8, !tbaa !14
  %9 = getelementptr inbounds nuw i8, ptr %2, i64 20
  %10 = getelementptr inbounds nuw i8, ptr %2, i64 16
  %11 = getelementptr inbounds nuw i8, ptr %2, i64 12
  %12 = getelementptr inbounds nuw i8, ptr %2, i64 8
  %13 = getelementptr inbounds nuw i8, ptr %2, i64 4
  %14 = call i32 (ptr, ptr, ...) @__isoc99_sscanf(ptr noundef %8, ptr noundef nonnull @.str, ptr noundef nonnull %9, ptr noundef nonnull %10, ptr noundef nonnull %11, ptr noundef nonnull %12, ptr noundef nonnull %13, ptr noundef nonnull %2) #9
  switch i32 %14, label %16 [
    i32 5, label %15
    i32 6, label %19
  ]

15:                                               ; preds = %6
  store i32 0, ptr %2, align 8, !tbaa !15
  br label %19

16:                                               ; preds = %6
  %17 = load i64, ptr @rb_eTypeError, align 8, !tbaa !17
  %18 = load ptr, ptr %7, align 8, !tbaa !14
  call void (i64, ptr, ...) @ossl_raise(i64 noundef %17, ptr noundef nonnull @.str.1, ptr noundef %18) #10
  unreachable

19:                                               ; preds = %6, %15
  %20 = load i32, ptr %9, align 4, !tbaa !18
  %21 = icmp slt i32 %20, 69
  br i1 %21, label %22, label %24

22:                                               ; preds = %19
  %23 = add nsw i32 %20, 2000
  store i32 %23, ptr %9, align 4, !tbaa !18
  br label %40

24:                                               ; preds = %19
  %25 = add nuw nsw i32 %20, 1900
  store i32 %25, ptr %9, align 4, !tbaa !18
  br label %40

26:                                               ; preds = %1
  %27 = getelementptr inbounds nuw i8, ptr %0, i64 8
  %28 = load ptr, ptr %27, align 8, !tbaa !14
  %29 = getelementptr inbounds nuw i8, ptr %2, i64 20
  %30 = getelementptr inbounds nuw i8, ptr %2, i64 16
  %31 = getelementptr inbounds nuw i8, ptr %2, i64 12
  %32 = getelementptr inbounds nuw i8, ptr %2, i64 8
  %33 = getelementptr inbounds nuw i8, ptr %2, i64 4
  %34 = call i32 (ptr, ptr, ...) @__isoc99_sscanf(ptr noundef %28, ptr noundef nonnull @.str.2, ptr noundef nonnull %29, ptr noundef nonnull %30, ptr noundef nonnull %31, ptr noundef nonnull %32, ptr noundef nonnull %33, ptr noundef nonnull %2) #9
  switch i32 %34, label %36 [
    i32 5, label %35
    i32 6, label %40
  ]

35:                                               ; preds = %26
  store i32 0, ptr %2, align 8, !tbaa !15
  br label %40

36:                                               ; preds = %26
  %37 = load i64, ptr @rb_eTypeError, align 8, !tbaa !17
  %38 = load ptr, ptr %27, align 8, !tbaa !14
  call void (i64, ptr, ...) @ossl_raise(i64 noundef %37, ptr noundef nonnull @.str.3, ptr noundef %38) #10
  unreachable

39:                                               ; preds = %1
  tail call void (ptr, ...) @rb_warning(ptr noundef nonnull @.str.4) #9
  br label %78

40:                                               ; preds = %26, %35, %22, %24
  %41 = getelementptr inbounds nuw i8, ptr %2, i64 20
  %42 = load i32, ptr %41, align 4, !tbaa !18
  %43 = sext i32 %42 to i64
  %44 = shl nsw i64 %43, 1
  %45 = or disjoint i64 %44, 1
  store i64 %45, ptr %3, align 16, !tbaa !17
  %46 = getelementptr inbounds nuw i8, ptr %2, i64 16
  %47 = load i32, ptr %46, align 8, !tbaa !19
  %48 = sext i32 %47 to i64
  %49 = shl nsw i64 %48, 1
  %50 = or disjoint i64 %49, 1
  %51 = getelementptr inbounds nuw i8, ptr %3, i64 8
  store i64 %50, ptr %51, align 8, !tbaa !17
  %52 = getelementptr inbounds nuw i8, ptr %2, i64 12
  %53 = load i32, ptr %52, align 4, !tbaa !20
  %54 = sext i32 %53 to i64
  %55 = shl nsw i64 %54, 1
  %56 = or disjoint i64 %55, 1
  %57 = getelementptr inbounds nuw i8, ptr %3, i64 16
  store i64 %56, ptr %57, align 16, !tbaa !17
  %58 = getelementptr inbounds nuw i8, ptr %2, i64 8
  %59 = load i32, ptr %58, align 8, !tbaa !21
  %60 = sext i32 %59 to i64
  %61 = shl nsw i64 %60, 1
  %62 = or disjoint i64 %61, 1
  %63 = getelementptr inbounds nuw i8, ptr %3, i64 24
  store i64 %62, ptr %63, align 8, !tbaa !17
  %64 = getelementptr inbounds nuw i8, ptr %2, i64 4
  %65 = load i32, ptr %64, align 4, !tbaa !22
  %66 = sext i32 %65 to i64
  %67 = shl nsw i64 %66, 1
  %68 = or disjoint i64 %67, 1
  %69 = getelementptr inbounds nuw i8, ptr %3, i64 32
  store i64 %68, ptr %69, align 16, !tbaa !17
  %70 = load i32, ptr %2, align 8, !tbaa !15
  %71 = sext i32 %70 to i64
  %72 = shl nsw i64 %71, 1
  %73 = or disjoint i64 %72, 1
  %74 = getelementptr inbounds nuw i8, ptr %3, i64 40
  store i64 %73, ptr %74, align 8, !tbaa !17
  %75 = load i64, ptr @rb_cTime, align 8, !tbaa !17
  %.pr.i = load i64, ptr @asn1time_to_time.rbimpl_id, align 8, !tbaa !17
  %.not4.i = icmp eq i64 %.pr.i, 0
  br i1 %.not4.i, label %.lr.ph.i, label %rbimpl_intern_const.exit

.lr.ph.i:                                         ; preds = %40, %.lr.ph.i
  %76 = call i64 @rb_intern2(ptr noundef nonnull @.str.5, i64 noundef 3) #9
  store i64 %76, ptr @asn1time_to_time.rbimpl_id, align 8, !tbaa !17
  %.not.i = icmp eq i64 %76, 0
  br i1 %.not.i, label %.lr.ph.i, label %rbimpl_intern_const.exit, !llvm.loop !23

rbimpl_intern_const.exit:                         ; preds = %.lr.ph.i, %40
  %.lcssa.i = phi i64 [ %.pr.i, %40 ], [ %76, %.lr.ph.i ]
  %77 = call i64 @rb_funcallv(i64 noundef %75, i64 noundef %.lcssa.i, i32 noundef 6, ptr noundef nonnull %3) #9
  br label %78

78:                                               ; preds = %rbimpl_intern_const.exit, %39
  %.0 = phi i64 [ 4, %39 ], [ %77, %rbimpl_intern_const.exit ]
  call void @llvm.lifetime.end.p0(i64 48, ptr nonnull %3) #9
  call void @llvm.lifetime.end.p0(i64 56, ptr nonnull %2) #9
  ret i64 %.0
}